; ModuleID = 'source-C-CXX/3/611.cpp'
source_filename = "source-C-CXX/3/611.cpp"
target datalayout = "e-m:e-p270:32:32-p271:32:32-p272:64:64-i64:64-f80:128-n8:16:32:64-S128"
target triple = "x86_64-pc-linux-gnu"

%"class.std::ios_base::Init" = type { i8 }
%"class.std::basic_istream" = type { i32 (...)**, i64, %"class.std::basic_ios" }
%"class.std::basic_ios" = type { %"class.std::ios_base", %"class.std::basic_ostream"*, i8, i8, %"class.std::basic_streambuf"*, %"class.std::ctype"*, %"class.std::num_put"*, %"class.std::num_get"* }
%"class.std::ios_base" = type { i32 (...)**, i64, i64, i32, i32, i32, %"struct.std::ios_base::_Callback_list"*, %"struct.std::ios_base::_Words", [8 x %"struct.std::ios_base::_Words"], i32, %"struct.std::ios_base::_Words"*, %"class.std::locale" }
%"struct.std::ios_base::_Callback_list" = type { %"struct.std::ios_base::_Callback_list"*, void (i32, %"class.std::ios_base"*, i32)*, i32, i32 }
%"struct.std::ios_base::_Words" = type { i8*, i64 }
%"class.std::locale" = type { %"class.std::locale::_Impl"* }
%"class.std::locale::_Impl" = type { i32, %"class.std::locale::facet"**, i64, %"class.std::locale::facet"**, i8** }
%"class.std::locale::facet" = type <{ i32 (...)**, i32, [4 x i8] }>
%"class.std::basic_ostream" = type { i32 (...)**, %"class.std::basic_ios" }
%"class.std::basic_streambuf" = type { i32 (...)**, i8*, i8*, i8*, i8*, i8*, i8*, %"class.std::locale" }
%"class.std::ctype" = type <{ %"class.std::locale::facet.base", [4 x i8], %struct.__locale_struct*, i8, [7 x i8], i32*, i32*, i16*, i8, [256 x i8], [256 x i8], i8, [6 x i8] }>
%"class.std::locale::facet.base" = type <{ i32 (...)**, i32 }>
%struct.__locale_struct = type { [13 x %struct.__locale_data*], i16*, i32*, i32*, [13 x i8*] }
%struct.__locale_data = type opaque
%"class.std::num_put" = type { %"class.std::locale::facet.base", [4 x i8] }
%"class.std::num_get" = type { %"class.std::locale::facet.base", [4 x i8] }

@_ZStL8__ioinit = internal global %"class.std::ios_base::Init" zeroinitializer, align 1
@__dso_handle = external hidden global i8
@_ZSt3cin = external global %"class.std::basic_istream", align 8
@_ZSt4cout = external global %"class.std::basic_ostream", align 8
@llvm.global_ctors = appending global [1 x { i32, void ()*, i8* }] [{ i32, void ()*, i8* } { i32 65535, void ()* @_GLOBAL__sub_I_611.cpp, i8* null }]

declare void @_ZNSt8ios_base4InitC1Ev(%"class.std::ios_base::Init"* nonnull align 1 dereferenceable(1)) unnamed_addr #0

; Function Attrs: nounwind
declare void @_ZNSt8ios_base4InitD1Ev(%"class.std::ios_base::Init"* nonnull align 1 dereferenceable(1)) unnamed_addr #1

; Function Attrs: nofree nounwind
declare i32 @__cxa_atexit(void (i8*)*, i8*, i8*) local_unnamed_addr #2

; Function Attrs: mustprogress norecurse sspstrong uwtable
define dso_local i32 @main() local_unnamed_addr #3 {
  %1 = alloca [100 x [100 x i32]], align 16
  %2 = alloca i32, align 4
  %3 = alloca i32, align 4
  %4 = bitcast [100 x [100 x i32]]* %1 to i8*
  call void @llvm.lifetime.start.p0i8(i64 40000, i8* nonnull %4) #8
  %5 = bitcast i32* %2 to i8*
  call void @llvm.lifetime.start.p0i8(i64 4, i8* nonnull %5) #8
  %6 = bitcast i32* %3 to i8*
  call void @llvm.lifetime.start.p0i8(i64 4, i8* nonnull %6) #8
  %7 = call nonnull align 8 dereferenceable(16) %"class.std::basic_istream"* @_ZNSirsERi(%"class.std::basic_istream"* nonnull align 8 dereferenceable(16) @_ZSt3cin, i32* nonnull align 4 dereferenceable(4) %3)
  %8 = call nonnull align 8 dereferenceable(16) %"class.std::basic_istream"* @_ZNSirsERi(%"class.std::basic_istream"* nonnull align 8 dereferenceable(16) %7, i32* nonnull align 4 dereferenceable(4) %2)
  %9 = load i32, i32* %3, align 4, !tbaa !5
  %10 = load i32, i32* %2, align 4, !tbaa !5
  %11 = icmp sgt i32 %9, %10
  %12 = select i1 %11, i32 %9, i32 %10
  %13 = icmp slt i32 %9, 1
  %14 = icmp slt i32 %10, 1
  %15 = select i1 %13, i1 true, i1 %14
  br i1 %15, label %21, label %16

16:                                               ; preds = %0, %38
  %17 = phi i32 [ %39, %38 ], [ %9, %0 ]
  %18 = phi i32 [ %40, %38 ], [ %10, %0 ]
  %19 = phi i64 [ %41, %38 ], [ 1, %0 ]
  %20 = icmp slt i32 %18, 1
  br i1 %20, label %38, label %28

21:                                               ; preds = %38, %0
  %22 = icmp slt i32 %12, 1
  br i1 %22, label %95, label %23

23:                                               ; preds = %21
  %24 = shl nuw i32 %12, 1
  %25 = call i32 @llvm.smax.i32(i32 %24, i32 2)
  %26 = or i32 %25, 1
  %27 = zext i32 %26 to i64
  br label %44

28:                                               ; preds = %16, %28
  %29 = phi i64 [ %32, %28 ], [ 1, %16 ]
  %30 = getelementptr inbounds [100 x [100 x i32]], [100 x [100 x i32]]* %1, i64 0, i64 %19, i64 %29
  %31 = call nonnull align 8 dereferenceable(16) %"class.std::basic_istream"* @_ZNSirsERi(%"class.std::basic_istream"* nonnull align 8 dereferenceable(16) @_ZSt3cin, i32* nonnull align 4 dereferenceable(4) %30)
  %32 = add nuw nsw i64 %29, 1
  %33 = load i32, i32* %2, align 4, !tbaa !5
  %34 = sext i32 %33 to i64
  %35 = icmp slt i64 %29, %34
  br i1 %35, label %28, label %36, !llvm.loop !9

36:                                               ; preds = %28
  %37 = load i32, i32* %3, align 4, !tbaa !5
  br label %38

38:                                               ; preds = %36, %16
  %39 = phi i32 [ %37, %36 ], [ %17, %16 ]
  %40 = phi i32 [ %33, %36 ], [ %18, %16 ]
  %41 = add nuw nsw i64 %19, 1
  %42 = sext i32 %39 to i64
  %43 = icmp slt i64 %19, %42
  br i1 %43, label %16, label %21, !llvm.loop !11

44:                                               ; preds = %23, %92
  %45 = phi i64 [ 2, %23 ], [ %93, %92 ]
  br label %46

46:                                               ; preds = %44, %89
  %47 = phi i64 [ 1, %44 ], [ %90, %89 ]
  %48 = load i32, i32* %3, align 4, !tbaa !5
  %49 = sext i32 %48 to i64
  %50 = icmp sgt i64 %47, %49
  br i1 %50, label %89, label %51

51:                                               ; preds = %46
  %52 = sub nsw i64 %45, %47
  %53 = load i32, i32* %2, align 4, !tbaa !5
  %54 = sext i32 %53 to i64
  %55 = icmp sgt i64 %52, %54
  br i1 %55, label %89, label %56

56:                                               ; preds = %51
  %57 = getelementptr inbounds [100 x [100 x i32]], [100 x [100 x i32]]* %1, i64 0, i64 %47, i64 %52
  %58 = load i32, i32* %57, align 4, !tbaa !5
  %59 = call nonnull align 8 dereferenceable(8) %"class.std::basic_ostream"* @_ZNSolsEi(%"class.std::basic_ostream"* nonnull align 8 dereferenceable(8) @_ZSt4cout, i32 %58)
  %60 = bitcast %"class.std::basic_ostream"* %59 to i8**
  %61 = load i8*, i8** %60, align 8, !tbaa !13
  %62 = getelementptr i8, i8* %61, i64 -24
  %63 = bitcast i8* %62 to i64*
  %64 = load i64, i64* %63, align 8
  %65 = bitcast %"class.std::basic_ostream"* %59 to i8*
  %66 = add nsw i64 %64, 240
  %67 = getelementptr inbounds i8, i8* %65, i64 %66
  %68 = bitcast i8* %67 to %"class.std::ctype"**
  %69 = load %"class.std::ctype"*, %"class.std::ctype"** %68, align 8, !tbaa !15
  %70 = icmp eq %"class.std::ctype"* %69, null
  br i1 %70, label %71, label %72

71:                                               ; preds = %56
  call void @_ZSt16__throw_bad_castv() #9
  unreachable

72:                                               ; preds = %56
  %73 = getelementptr inbounds %"class.std::ctype", %"class.std::ctype"* %69, i64 0, i32 8
  %74 = load i8, i8* %73, align 8, !tbaa !19
  %75 = icmp eq i8 %74, 0
  br i1 %75, label %79, label %76

76:                                               ; preds = %72
  %77 = getelementptr inbounds %"class.std::ctype", %"class.std::ctype"* %69, i64 0, i32 9, i64 10
  %78 = load i8, i8* %77, align 1, !tbaa !21
  br label %85

79:                                               ; preds = %72
  call void @_ZNKSt5ctypeIcE13_M_widen_initEv(%"class.std::ctype"* nonnull align 8 dereferenceable(570) %69)
  %80 = bitcast %"class.std::ctype"* %69 to i8 (%"class.std::ctype"*, i8)***
  %81 = load i8 (%"class.std::ctype"*, i8)**, i8 (%"class.std::ctype"*, i8)*** %80, align 8, !tbaa !13
  %82 = getelementptr inbounds i8 (%"class.std::ctype"*, i8)*, i8 (%"class.std::ctype"*, i8)** %81, i64 6
  %83 = load i8 (%"class.std::ctype"*, i8)*, i8 (%"class.std::ctype"*, i8)** %82, align 8
  %84 = call signext i8 %83(%"class.std::ctype"* nonnull align 8 dereferenceable(570) %69, i8 signext 10)
  br label %85

85:                                               ; preds = %76, %79
  %86 = phi i8 [ %78, %76 ], [ %84, %79 ]
  %87 = call nonnull align 8 dereferenceable(8) %"class.std::basic_ostream"* @_ZNSo3putEc(%"class.std::basic_ostream"* nonnull align 8 dereferenceable(8) %59, i8 signext %86)
  %88 = call nonnull align 8 dereferenceable(8) %"class.std::basic_ostream"* @_ZNSo5flushEv(%"class.std::basic_ostream"* nonnull align 8 dereferenceable(8) %87)
  br label %89

89:                                               ; preds = %46, %51, %85
  %90 = add nuw nsw i64 %47, 1
  %91 = icmp eq i64 %90, %45
  br i1 %91, label %92, label %46, !llvm.loop !22

92:                                               ; preds = %89
  %93 = add nuw nsw i64 %45, 1
  %94 = icmp eq i64 %93, %27
  br i1 %94, label %95, label %44, !llvm.loop !23

95:                                               ; preds = %92, %21
  call void @llvm.lifetime.end.p0i8(i64 4, i8* nonnull %6) #8
  call void @llvm.lifetime.end.p0i8(i64 4, i8* nonnull %5) #8
  call void @llvm.lifetime.end.p0i8(i64 40000, i8* nonnull %4) #8
  ret i32 0
}

; Function Attrs: argmemonly mustprogress nofree nosync nounwind willreturn
declare void @llvm.lifetime.start.p0i8(i64 immarg, i8* nocapture) #4

declare nonnull align 8 dereferenceable(16) %"class.std::basic_istream"* @_ZNSirsERi(%"class.std::basic_istream"* nonnull align 8 dereferenceable(16), i32* nonnull align 4 dereferenceable(4)) local_unnamed_addr #0

declare nonnull align 8 dereferenceable(8) %"class.std::basic_ostream"* @_ZNSolsEi(%"class.std::basic_ostream"* nonnull align 8 dereferenceable(8), i32) local_unnamed_addr #0

; Function Attrs: argmemonly mustprogress nofree nosync nounwind willreturn
declare void @llvm.lifetime.end.p0i8(i64 immarg, i8* nocapture) #4

declare nonnull align 8 dereferenceable(8) %"class.std::basic_ostream"* @_ZNSo3putEc(%"class.std::basic_ostream"* nonnull align 8 dereferenceable(8), i8 signext) local_unnamed_addr #0

declare nonnull align 8 dereferenceable(8) %"class.std::basic_ostream"* @_ZNSo5flushEv(%"class.std::basic_ostream"* nonnull align 8 dereferenceable(8)) local_unnamed_addr #0

; Function Attrs: noreturn
declare void @_ZSt16__throw_bad_castv() local_unnamed_addr #5

declare void @_ZNKSt5ctypeIcE13_M_widen_initEv(%"class.std::ctype"* nonnull align 8 dereferenceable(570)) local_unnamed_addr #0

; Function Attrs: sspstrong uwtable
define internal void @_GLOBAL__sub_I_611.cpp() #6 section ".text.startup" {
  tail call void @_ZNSt8ios_base4InitC1Ev(%"class.std::ios_base::Init"* nonnull align 1 dereferenceable(1) @_ZStL8__ioinit)
  %1 = tail call i32 @__cxa_atexit(void (i8*)* bitcast (void (%"class.std::ios_base::Init"*)* @_ZNSt8ios_base4InitD1Ev to void (i8*)*), i8* getelementptr inbounds (%"class.std::ios_base::Init", %"class.std::ios_base::Init"* @_ZStL8__ioinit, i64 0, i32 0), i8* nonnull @__dso_handle) #8
  ret void
}

; Function Attrs: nofree nosync nounwind readnone speculatable willreturn
declare i32 @llvm.smax.i32(i32, i32) #7


!llvm.module.flags = !{!0, !1, !2, !3}
!llvm.ident = !{!4}

!0 = !{i32 1, !"wchar_size", i32 4}
!1 = !{i32 7, !"PIC Level", i32 2}
!2 = !{i32 7, !"PIE Level", i32 2}
!3 = !{i32 7, !"uwtable", i32 1}
!4 = !{!"clang version 13.0.0"}
!5 = !{!6, !6, i64 0}
!6 = !{!"int", !7, i64 0}
!7 = !{!"omnipotent char", !8, i64 0}
!8 = !{!"Simple C++ TBAA"}
!9 = distinct !{!9, !10}
!10 = !{!"llvm.loop.mustprogress"}
!11 = distinct !{!11, !10, !12}
!12 = !{!"llvm.loop.unswitch.partial.disable"}
!13 = !{!14, !14, i64 0}
!14 = !{!"vtable pointer", !8, i64 0}
!15 = !{!16, !17, i64 240}
!16 = !{!"_ZTSSt9basic_iosIcSt11char_traitsIcEE", !17, i64 216, !7, i64 224, !18, i64 225, !17, i64 232, !17, i64 240, !17, i64 248, !17, i64 256}
!17 = !{!"any pointer", !7, i64 0}
!18 = !{!"bool", !7, i64 0}
!19 = !{!20, !7, i64 56}
!20 = !{!"_ZTSSt5ctypeIcE", !17, i64 16, !18, i64 24, !17, i64 32, !17, i64 40, !17, i64 48, !7, i64 56, !7, i64 57, !7, i64 313, !7, i64 569}
!21 = !{!7, !7, i64 0}
!22 = distinct !{!22, !10}
!23 = distinct !{!23, !10}
